; Function Attrs: mustprogress nounwind uwtable
define hidden noundef zeroext i1 @_ZNK14JfrThreadLocal11is_includedEv(ptr noundef nonnull align 8 dereferenceable(195) %0) local_unnamed_addr #0 align 2 {
  %2 = getelementptr inbounds i8, ptr %0, i64 192
  %3 = load volatile i8, ptr %2, align 8
  %4 = trunc i8 %3 to i1
  tail call void asm sideeffect "", "~{memory},~{dirflag},~{fpsr},~{flags}"() #13, !srcloc !7
  br i1 %4, label %5, label %8

5:                                                ; preds = %1
  %6 = getelementptr inbounds i8, ptr %0, i64 190
  %7 = load volatile i8, ptr %6, align 2
  br label %_ZNK14JfrThreadLocal11is_excludedEv.exit

8:                                                ; preds = %1
  %9 = getelementptr inbounds i8, ptr %0, i64 191
  %10 = load i8, ptr %9, align 1
  br label %_ZNK14JfrThreadLocal11is_excludedEv.exit

_ZNK14JfrThreadLocal11is_excludedEv.exit:         ; preds = %5, %8
  %.in.i = phi i8 [ %7, %5 ], [ %10, %8 ]
  %11 = trunc i8 %.in.i to i1
  %12 = xor i1 %11, true
  ret i1 %12
}